; Function Attrs: mustprogress uwtable
define noundef zeroext i1 @_ZN6opencc7Lexicon8IsSortedEv(ptr noundef nonnull readonly align 8 captures(none) dereferenceable(24) %0) local_unnamed_addr #1 align 2 {
  %2 = load ptr, ptr %0, align 8, !tbaa !3
  %3 = getelementptr inbounds nuw i8, ptr %0, i64 8
  %4 = load ptr, ptr %3, align 8, !tbaa !3
  %5 = icmp eq ptr %2, %4
  br i1 %5, label %_ZSt9is_sortedIN9__gnu_cxx17__normal_iteratorIPSt10unique_ptrIN6opencc9DictEntryESt14default_deleteIS4_EESt6vectorIS7_SaIS7_EEEEPFbRKS7_SE_EEbT_SH_T0_.exit, label %.preheader.i.i.i

.preheader.i.i.i:                                 ; preds = %1, %6
  %.sroa.04.0.i.i.i = phi ptr [ %.sroa.05.1.i.i.i, %6 ], [ %2, %1 ]
  %.sroa.05.1.i.i.i = getelementptr inbounds nuw i8, ptr %.sroa.04.0.i.i.i, i64 8
  %.not.i.i.i = icmp eq ptr %.sroa.05.1.i.i.i, %4
  br i1 %.not.i.i.i, label %_ZSt9is_sortedIN9__gnu_cxx17__normal_iteratorIPSt10unique_ptrIN6opencc9DictEntryESt14default_deleteIS4_EESt6vectorIS7_SaIS7_EEEEPFbRKS7_SE_EEbT_SH_T0_.exit, label %6

6:                                                ; preds = %.preheader.i.i.i
  %7 = load ptr, ptr %.sroa.05.1.i.i.i, align 8, !tbaa !8
  %8 = load ptr, ptr %.sroa.04.0.i.i.i, align 8, !tbaa !8
  %9 = tail call noundef zeroext i1 @_ZNK6opencc9DictEntryltERKS0_(ptr noundef nonnull align 8 dereferenceable(8) %7, ptr noundef nonnull align 8 dereferenceable(8) %8)
  br i1 %9, label %_ZSt9is_sortedIN9__gnu_cxx17__normal_iteratorIPSt10unique_ptrIN6opencc9DictEntryESt14default_deleteIS4_EESt6vectorIS7_SaIS7_EEEEPFbRKS7_SE_EEbT_SH_T0_.exit, label %.preheader.i.i.i, !llvm.loop !24

_ZSt9is_sortedIN9__gnu_cxx17__normal_iteratorIPSt10unique_ptrIN6opencc9DictEntryESt14default_deleteIS4_EESt6vectorIS7_SaIS7_EEEEPFbRKS7_SE_EEbT_SH_T0_.exit: ; preds = %.preheader.i.i.i, %6, %1
  %.sroa.05.0.i.i.i = phi ptr [ %2, %1 ], [ %.sroa.05.1.i.i.i, %6 ], [ %4, %.preheader.i.i.i ]
  %10 = icmp eq ptr %.sroa.05.0.i.i.i, %4
  ret i1 %10
}